target datalayout = "e-m:e-p270:32:32-p271:32:32-p272:64:64-i64:64-i128:128-f80:128-n8:16:32:64-S128"
target triple = "x86_64-pc-linux-gnu"

; Function Attrs: mustprogress nounwind uwtable
define void @_Z12rotate_atomsiPKiPA3_fS2_(i32 noundef %0, ptr noundef %1, ptr noundef %2, ptr noundef %3) #3 {
  %5 = alloca i32, align 4
  %6 = alloca ptr, align 8
  %7 = alloca ptr, align 8
  %8 = alloca ptr, align 8
  %9 = alloca float, align 4
  %10 = alloca float, align 4
  %11 = alloca float, align 4
  %12 = alloca i32, align 4
  %13 = alloca i32, align 4
  store i32 %0, ptr %5, align 4, !tbaa !4
  store ptr %1, ptr %6, align 8, !tbaa !8
  store ptr %2, ptr %7, align 8, !tbaa !13
  store ptr %3, ptr %8, align 8, !tbaa !13
  call void @llvm.lifetime.start.p0(i64 4, ptr %9) #7
  call void @llvm.lifetime.start.p0(i64 4, ptr %10) #7
  call void @llvm.lifetime.start.p0(i64 4, ptr %11) #7
  call void @llvm.lifetime.start.p0(i64 4, ptr %12) #7
  call void @llvm.lifetime.start.p0(i64 4, ptr %13) #7
  store i32 0, ptr %12, align 4, !tbaa !4
  br label %14

14:                                               ; preds = %118, %4
  %15 = load i32, ptr %12, align 4, !tbaa !4
  %16 = load i32, ptr %5, align 4, !tbaa !4
  %17 = icmp slt i32 %15, %16
  br i1 %17, label %18, label %121

18:                                               ; preds = %14
  %19 = load ptr, ptr %6, align 8, !tbaa !8
  %20 = icmp ne ptr %19, null
  br i1 %20, label %21, label %27

21:                                               ; preds = %18
  %22 = load ptr, ptr %6, align 8, !tbaa !8
  %23 = load i32, ptr %12, align 4, !tbaa !4
  %24 = sext i32 %23 to i64
  %25 = getelementptr inbounds i32, ptr %22, i64 %24
  %26 = load i32, ptr %25, align 4, !tbaa !4
  br label %29

27:                                               ; preds = %18
  %28 = load i32, ptr %12, align 4, !tbaa !4
  br label %29

29:                                               ; preds = %27, %21
  %30 = phi i32 [ %26, %21 ], [ %28, %27 ]
  store i32 %30, ptr %13, align 4, !tbaa !4
  %31 = load ptr, ptr %7, align 8, !tbaa !13
  %32 = load i32, ptr %13, align 4, !tbaa !4
  %33 = sext i32 %32 to i64
  %34 = getelementptr inbounds [3 x float], ptr %31, i64 %33
  %35 = getelementptr inbounds [3 x float], ptr %34, i64 0, i64 0
  %36 = load float, ptr %35, align 4, !tbaa !31
  store float %36, ptr %9, align 4, !tbaa !31
  %37 = load ptr, ptr %7, align 8, !tbaa !13
  %38 = load i32, ptr %13, align 4, !tbaa !4
  %39 = sext i32 %38 to i64
  %40 = getelementptr inbounds [3 x float], ptr %37, i64 %39
  %41 = getelementptr inbounds [3 x float], ptr %40, i64 0, i64 1
  %42 = load float, ptr %41, align 4, !tbaa !31
  store float %42, ptr %10, align 4, !tbaa !31
  %43 = load ptr, ptr %7, align 8, !tbaa !13
  %44 = load i32, ptr %13, align 4, !tbaa !4
  %45 = sext i32 %44 to i64
  %46 = getelementptr inbounds [3 x float], ptr %43, i64 %45
  %47 = getelementptr inbounds [3 x float], ptr %46, i64 0, i64 2
  %48 = load float, ptr %47, align 4, !tbaa !31
  store float %48, ptr %11, align 4, !tbaa !31
  %49 = load ptr, ptr %8, align 8, !tbaa !13
  %50 = getelementptr inbounds [3 x float], ptr %49, i64 0
  %51 = getelementptr inbounds [3 x float], ptr %50, i64 0, i64 0
  %52 = load float, ptr %51, align 4, !tbaa !31
  %53 = load float, ptr %9, align 4, !tbaa !31
  %54 = load ptr, ptr %8, align 8, !tbaa !13
  %55 = getelementptr inbounds [3 x float], ptr %54, i64 0
  %56 = getelementptr inbounds [3 x float], ptr %55, i64 0, i64 1
  %57 = load float, ptr %56, align 4, !tbaa !31
  %58 = load float, ptr %10, align 4, !tbaa !31
  %59 = fmul float %57, %58
  %60 = call float @llvm.fmuladd.f32(float %52, float %53, float %59)
  %61 = load ptr, ptr %8, align 8, !tbaa !13
  %62 = getelementptr inbounds [3 x float], ptr %61, i64 0
  %63 = getelementptr inbounds [3 x float], ptr %62, i64 0, i64 2
  %64 = load float, ptr %63, align 4, !tbaa !31
  %65 = load float, ptr %11, align 4, !tbaa !31
  %66 = call float @llvm.fmuladd.f32(float %64, float %65, float %60)
  %67 = load ptr, ptr %7, align 8, !tbaa !13
  %68 = load i32, ptr %13, align 4, !tbaa !4
  %69 = sext i32 %68 to i64
  %70 = getelementptr inbounds [3 x float], ptr %67, i64 %69
  %71 = getelementptr inbounds [3 x float], ptr %70, i64 0, i64 0
  store float %66, ptr %71, align 4, !tbaa !31
  %72 = load ptr, ptr %8, align 8, !tbaa !13
  %73 = getelementptr inbounds [3 x float], ptr %72, i64 1
  %74 = getelementptr inbounds [3 x float], ptr %73, i64 0, i64 0
  %75 = load float, ptr %74, align 4, !tbaa !31
  %76 = load float, ptr %9, align 4, !tbaa !31
  %77 = load ptr, ptr %8, align 8, !tbaa !13
  %78 = getelementptr inbounds [3 x float], ptr %77, i64 1
  %79 = getelementptr inbounds [3 x float], ptr %78, i64 0, i64 1
  %80 = load float, ptr %79, align 4, !tbaa !31
  %81 = load float, ptr %10, align 4, !tbaa !31
  %82 = fmul float %80, %81
  %83 = call float @llvm.fmuladd.f32(float %75, float %76, float %82)
  %84 = load ptr, ptr %8, align 8, !tbaa !13
  %85 = getelementptr inbounds [3 x float], ptr %84, i64 1
  %86 = getelementptr inbounds [3 x float], ptr %85, i64 0, i64 2
  %87 = load float, ptr %86, align 4, !tbaa !31
  %88 = load float, ptr %11, align 4, !tbaa !31
  %89 = call float @llvm.fmuladd.f32(float %87, float %88, float %83)
  %90 = load ptr, ptr %7, align 8, !tbaa !13
  %91 = load i32, ptr %13, align 4, !tbaa !4
  %92 = sext i32 %91 to i64
  %93 = getelementptr inbounds [3 x float], ptr %90, i64 %92
  %94 = getelementptr inbounds [3 x float], ptr %93, i64 0, i64 1
  store float %89, ptr %94, align 4, !tbaa !31
  %95 = load ptr, ptr %8, align 8, !tbaa !13
  %96 = getelementptr inbounds [3 x float], ptr %95, i64 2
  %97 = getelementptr inbounds [3 x float], ptr %96, i64 0, i64 0
  %98 = load float, ptr %97, align 4, !tbaa !31
  %99 = load float, ptr %9, align 4, !tbaa !31
  %100 = load ptr, ptr %8, align 8, !tbaa !13
  %101 = getelementptr inbounds [3 x float], ptr %100, i64 2
  %102 = getelementptr inbounds [3 x float], ptr %101, i64 0, i64 1
  %103 = load float, ptr %102, align 4, !tbaa !31
  %104 = load float, ptr %10, align 4, !tbaa !31
  %105 = fmul float %103, %104
  %106 = call float @llvm.fmuladd.f32(float %98, float %99, float %105)
  %107 = load ptr, ptr %8, align 8, !tbaa !13
  %108 = getelementptr inbounds [3 x float], ptr %107, i64 2
  %109 = getelementptr inbounds [3 x float], ptr %108, i64 0, i64 2
  %110 = load float, ptr %109, align 4, !tbaa !31
  %111 = load float, ptr %11, align 4, !tbaa !31
  %112 = call float @llvm.fmuladd.f32(float %110, float %111, float %106)
  %113 = load ptr, ptr %7, align 8, !tbaa !13
  %114 = load i32, ptr %13, align 4, !tbaa !4
  %115 = sext i32 %114 to i64
  %116 = getelementptr inbounds [3 x float], ptr %113, i64 %115
  %117 = getelementptr inbounds [3 x float], ptr %116, i64 0, i64 2
  store float %112, ptr %117, align 4, !tbaa !31
  br label %118

118:                                              ; preds = %29
  %119 = load i32, ptr %12, align 4, !tbaa !4
  %120 = add nsw i32 %119, 1
  store i32 %120, ptr %12, align 4, !tbaa !4
  br label %14, !llvm.loop !54

121:                                              ; preds = %14
  call void @llvm.lifetime.end.p0(i64 4, ptr %13) #7
  call void @llvm.lifetime.end.p0(i64 4, ptr %12) #7
  call void @llvm.lifetime.end.p0(i64 4, ptr %11) #7
  call void @llvm.lifetime.end.p0(i64 4, ptr %10) #7
  call void @llvm.lifetime.end.p0(i64 4, ptr %9) #7
  ret void
}