; Function Attrs: mustprogress nofree norecurse nosync nounwind memory(argmem: readwrite) uwtable
define void @_Z12rotate_atomsiPKiPA3_fS2_(i32 noundef %0, ptr noundef readonly %1, ptr noundef captures(none) %2, ptr noundef readonly captures(none) %3) local_unnamed_addr #4 {
  %5 = icmp sgt i32 %0, 0
  br i1 %5, label %.lr.ph, label %._crit_edge

.lr.ph:                                           ; preds = %4
  %.not = icmp eq ptr %1, null
  %6 = getelementptr inbounds nuw i8, ptr %3, i64 4
  %7 = getelementptr inbounds nuw i8, ptr %3, i64 8
  %8 = getelementptr inbounds nuw i8, ptr %3, i64 12
  %9 = getelementptr inbounds nuw i8, ptr %3, i64 16
  %10 = getelementptr inbounds nuw i8, ptr %3, i64 20
  %11 = getelementptr inbounds nuw i8, ptr %3, i64 24
  %12 = getelementptr inbounds nuw i8, ptr %3, i64 28
  %13 = getelementptr inbounds nuw i8, ptr %3, i64 32
  %wide.trip.count43 = zext nneg i32 %0 to i64
  br i1 %.not, label %.lr.ph.split.us, label %.lr.ph.split

.lr.ph.split.us:                                  ; preds = %.lr.ph, %.lr.ph.split.us
  %indvars.iv40 = phi i64 [ %indvars.iv.next41, %.lr.ph.split.us ], [ 0, %.lr.ph ]
  %14 = getelementptr inbounds nuw [3 x float], ptr %2, i64 %indvars.iv40
  %15 = load float, ptr %14, align 4, !tbaa !21
  %16 = getelementptr inbounds nuw i8, ptr %14, i64 4
  %17 = load float, ptr %16, align 4, !tbaa !21
  %18 = getelementptr inbounds nuw i8, ptr %14, i64 8
  %19 = load float, ptr %18, align 4, !tbaa !21
  %20 = load float, ptr %3, align 4, !tbaa !21
  %21 = load float, ptr %6, align 4, !tbaa !21
  %22 = fmul float %17, %21
  %23 = tail call float @llvm.fmuladd.f32(float %20, float %15, float %22)
  %24 = load float, ptr %7, align 4, !tbaa !21
  %25 = tail call float @llvm.fmuladd.f32(float %24, float %19, float %23)
  store float %25, ptr %14, align 4, !tbaa !21
  %26 = load float, ptr %8, align 4, !tbaa !21
  %27 = load float, ptr %9, align 4, !tbaa !21
  %28 = fmul float %17, %27
  %29 = tail call float @llvm.fmuladd.f32(float %26, float %15, float %28)
  %30 = load float, ptr %10, align 4, !tbaa !21
  %31 = tail call float @llvm.fmuladd.f32(float %30, float %19, float %29)
  store float %31, ptr %16, align 4, !tbaa !21
  %32 = load float, ptr %11, align 4, !tbaa !21
  %33 = load float, ptr %12, align 4, !tbaa !21
  %34 = fmul float %17, %33
  %35 = tail call float @llvm.fmuladd.f32(float %32, float %15, float %34)
  %36 = load float, ptr %13, align 4, !tbaa !21
  %37 = tail call float @llvm.fmuladd.f32(float %36, float %19, float %35)
  store float %37, ptr %18, align 4, !tbaa !21
  %indvars.iv.next41 = add nuw nsw i64 %indvars.iv40, 1
  %exitcond44.not = icmp eq i64 %indvars.iv.next41, %wide.trip.count43
  br i1 %exitcond44.not, label %._crit_edge, label %.lr.ph.split.us, !llvm.loop !37

.lr.ph.split:                                     ; preds = %.lr.ph, %.lr.ph.split
  %indvars.iv = phi i64 [ %indvars.iv.next, %.lr.ph.split ], [ 0, %.lr.ph ]
  %38 = getelementptr inbounds nuw i32, ptr %1, i64 %indvars.iv
  %39 = load i32, ptr %38, align 4, !tbaa !14
  %40 = sext i32 %39 to i64
  %41 = getelementptr inbounds [3 x float], ptr %2, i64 %40
  %42 = load float, ptr %41, align 4, !tbaa !21
  %43 = getelementptr inbounds nuw i8, ptr %41, i64 4
  %44 = load float, ptr %43, align 4, !tbaa !21
  %45 = getelementptr inbounds nuw i8, ptr %41, i64 8
  %46 = load float, ptr %45, align 4, !tbaa !21
  %47 = load float, ptr %3, align 4, !tbaa !21
  %48 = load float, ptr %6, align 4, !tbaa !21
  %49 = fmul float %44, %48
  %50 = tail call float @llvm.fmuladd.f32(float %47, float %42, float %49)
  %51 = load float, ptr %7, align 4, !tbaa !21
  %52 = tail call float @llvm.fmuladd.f32(float %51, float %46, float %50)
  store float %52, ptr %41, align 4, !tbaa !21
  %53 = load float, ptr %8, align 4, !tbaa !21
  %54 = load float, ptr %9, align 4, !tbaa !21
  %55 = fmul float %44, %54
  %56 = tail call float @llvm.fmuladd.f32(float %53, float %42, float %55)
  %57 = load float, ptr %10, align 4, !tbaa !21
  %58 = tail call float @llvm.fmuladd.f32(float %57, float %46, float %56)
  store float %58, ptr %43, align 4, !tbaa !21
  %59 = load float, ptr %11, align 4, !tbaa !21
  %60 = load float, ptr %12, align 4, !tbaa !21
  %61 = fmul float %44, %60
  %62 = tail call float @llvm.fmuladd.f32(float %59, float %42, float %61)
  %63 = load float, ptr %13, align 4, !tbaa !21
  %64 = tail call float @llvm.fmuladd.f32(float %63, float %46, float %62)
  store float %64, ptr %45, align 4, !tbaa !21
  %indvars.iv.next = add nuw nsw i64 %indvars.iv, 1
  %exitcond.not = icmp eq i64 %indvars.iv.next, %wide.trip.count43
  br i1 %exitcond.not, label %._crit_edge, label %.lr.ph.split, !llvm.loop !37

._crit_edge:                                      ; preds = %.lr.ph.split, %.lr.ph.split.us, %4
  ret void
}